target datalayout = "e-m:e-p270:32:32-p271:32:32-p272:64:64-i64:64-i128:128-f80:128-n8:16:32:64-S128"
target triple = "x86_64-pc-linux-gnu"

%struct.lzma_check_state = type { %union.anon, %union.anon.0 }
%union.anon = type { [8 x i64] }
%union.anon.0 = type { %struct.lzma_sha256_state }
%struct.lzma_sha256_state = type { [8 x i32], i64 }
%struct.lzma_block = type { i32, i32, i32, i64, i64, ptr, [64 x i8], ptr, ptr, ptr, i32, i32, i64, i64, i64, i64, i64, i64, i32, i32, i32, i32, i8, i8, i8, i8, i8, i8, i8, i8 }

; Function Attrs: nounwind uwtable
define internal i64 @lzma2_bound(i64 noundef %0) #0 {
  %2 = alloca i64, align 8
  %3 = alloca i64, align 8
  %4 = alloca i64, align 8
  %5 = alloca i32, align 4
  store i64 %0, ptr %3, align 8, !tbaa !4
  %6 = load i64, ptr %3, align 8, !tbaa !4
  %7 = icmp ugt i64 %6, 9223372036854774716
  br i1 %7, label %8, label %9

8:                                                ; preds = %1
  store i64 0, ptr %2, align 8
  br label %26

9:                                                ; preds = %1
  call void @llvm.lifetime.start.p0(i64 8, ptr %4) #7
  %10 = load i64, ptr %3, align 8, !tbaa !4
  %11 = add i64 %10, 65536
  %12 = sub i64 %11, 1
  %13 = udiv i64 %12, 65536
  %14 = mul i64 %13, 3
  %15 = add i64 %14, 1
  store i64 %15, ptr %4, align 8, !tbaa !4
  %16 = load i64, ptr %4, align 8, !tbaa !4
  %17 = sub i64 9223372036854774716, %16
  %18 = load i64, ptr %3, align 8, !tbaa !4
  %19 = icmp ult i64 %17, %18
  br i1 %19, label %20, label %21

20:                                               ; preds = %9
  store i64 0, ptr %2, align 8
  store i32 1, ptr %5, align 4
  br label %25

21:                                               ; preds = %9
  %22 = load i64, ptr %3, align 8, !tbaa !4
  %23 = load i64, ptr %4, align 8, !tbaa !4
  %24 = add i64 %22, %23
  store i64 %24, ptr %2, align 8
  store i32 1, ptr %5, align 4
  br label %25

25:                                               ; preds = %21, %20
  call void @llvm.lifetime.end.p0(i64 8, ptr %4) #7
  br label %26

26:                                               ; preds = %25, %8
  %27 = load i64, ptr %2, align 8
  ret i64 %27
}

; Function Attrs: nounwind uwtable
define internal i32 @block_buffer_encode(ptr noundef %0, ptr noundef %1, ptr noundef %2, i64 noundef %3, ptr noundef %4, ptr noundef %5, i64 noundef %6, i1 noundef zeroext %7) #0 {
  %9 = alloca i32, align 4
  %10 = alloca ptr, align 8
  %11 = alloca ptr, align 8
  %12 = alloca ptr, align 8
  %13 = alloca i64, align 8
  %14 = alloca ptr, align 8
  %15 = alloca ptr, align 8
  %16 = alloca i64, align 8
  %17 = alloca i8, align 1
  %18 = alloca i64, align 8
  %19 = alloca i32, align 4
  %20 = alloca i32, align 4
  %21 = alloca i32, align 4
  %22 = alloca i64, align 8
  %23 = alloca %struct.lzma_check_state, align 8
  store ptr %0, ptr %10, align 8, !tbaa !8
  store ptr %1, ptr %11, align 8, !tbaa !8
  store ptr %2, ptr %12, align 8, !tbaa !10
  store i64 %3, ptr %13, align 8, !tbaa !4
  store ptr %4, ptr %14, align 8, !tbaa !10
  store ptr %5, ptr %15, align 8, !tbaa !12
  store i64 %6, ptr %16, align 8, !tbaa !4
  %24 = zext i1 %7 to i8
  store i8 %24, ptr %17, align 1, !tbaa !14
  %25 = load ptr, ptr %10, align 8, !tbaa !8
  %26 = icmp eq ptr %25, null
  br i1 %26, label %44, label %27

27:                                               ; preds = %8
  %28 = load ptr, ptr %12, align 8, !tbaa !10
  %29 = icmp eq ptr %28, null
  br i1 %29, label %30, label %33

30:                                               ; preds = %27
  %31 = load i64, ptr %13, align 8, !tbaa !4
  %32 = icmp ne i64 %31, 0
  br i1 %32, label %44, label %33

33:                                               ; preds = %30, %27
  %34 = load ptr, ptr %14, align 8, !tbaa !10
  %35 = icmp eq ptr %34, null
  br i1 %35, label %44, label %36

36:                                               ; preds = %33
  %37 = load ptr, ptr %15, align 8, !tbaa !12
  %38 = icmp eq ptr %37, null
  br i1 %38, label %44, label %39

39:                                               ; preds = %36
  %40 = load ptr, ptr %15, align 8, !tbaa !12
  %41 = load i64, ptr %40, align 8, !tbaa !4
  %42 = load i64, ptr %16, align 8, !tbaa !4
  %43 = icmp ugt i64 %41, %42
  br i1 %43, label %44, label %45

44:                                               ; preds = %39, %36, %33, %30, %8
  store i32 11, ptr %9, align 4
  br label %200

45:                                               ; preds = %39
  %46 = load ptr, ptr %10, align 8, !tbaa !8
  %47 = getelementptr inbounds nuw %struct.lzma_block, ptr %46, i32 0, i32 0
  %48 = load i32, ptr %47, align 8, !tbaa !16
  %49 = icmp ugt i32 %48, 1
  br i1 %49, label %50, label %51

50:                                               ; preds = %45
  store i32 8, ptr %9, align 4
  br label %200

51:                                               ; preds = %45
  %52 = load ptr, ptr %10, align 8, !tbaa !8
  %53 = getelementptr inbounds nuw %struct.lzma_block, ptr %52, i32 0, i32 2
  %54 = load i32, ptr %53, align 8, !tbaa !19
  %55 = icmp ugt i32 %54, 15
  br i1 %55, label %64, label %56

56:                                               ; preds = %51
  %57 = load i8, ptr %17, align 1, !tbaa !14, !range !20, !noundef !21
  %58 = trunc i8 %57 to i1
  br i1 %58, label %59, label %65

59:                                               ; preds = %56
  %60 = load ptr, ptr %10, align 8, !tbaa !8
  %61 = getelementptr inbounds nuw %struct.lzma_block, ptr %60, i32 0, i32 5
  %62 = load ptr, ptr %61, align 8, !tbaa !22
  %63 = icmp eq ptr %62, null
  br i1 %63, label %64, label %65

64:                                               ; preds = %59, %51
  store i32 11, ptr %9, align 4
  br label %200

65:                                               ; preds = %59, %56
  %66 = load ptr, ptr %10, align 8, !tbaa !8
  %67 = getelementptr inbounds nuw %struct.lzma_block, ptr %66, i32 0, i32 2
  %68 = load i32, ptr %67, align 8, !tbaa !19
  %69 = call zeroext i8 @lzma_check_is_supported(i32 noundef %68) #8
  %70 = icmp ne i8 %69, 0
  br i1 %70, label %72, label %71

71:                                               ; preds = %65
  store i32 3, ptr %9, align 4
  br label %200

72:                                               ; preds = %65
  %73 = load i64, ptr %16, align 8, !tbaa !4
  %74 = load ptr, ptr %15, align 8, !tbaa !12
  %75 = load i64, ptr %74, align 8, !tbaa !4
  %76 = sub i64 %73, %75
  %77 = and i64 %76, 3
  %78 = load i64, ptr %16, align 8, !tbaa !4
  %79 = sub i64 %78, %77
  store i64 %79, ptr %16, align 8, !tbaa !4
  call void @llvm.lifetime.start.p0(i64 8, ptr %18) #7
  %80 = load ptr, ptr %10, align 8, !tbaa !8
  %81 = getelementptr inbounds nuw %struct.lzma_block, ptr %80, i32 0, i32 2
  %82 = load i32, ptr %81, align 8, !tbaa !19
  %83 = call i32 @lzma_check_size(i32 noundef %82) #8
  %84 = zext i32 %83 to i64
  store i64 %84, ptr %18, align 8, !tbaa !4
  %85 = load i64, ptr %16, align 8, !tbaa !4
  %86 = load ptr, ptr %15, align 8, !tbaa !12
  %87 = load i64, ptr %86, align 8, !tbaa !4
  %88 = sub i64 %85, %87
  %89 = load i64, ptr %18, align 8, !tbaa !4
  %90 = icmp ule i64 %88, %89
  br i1 %90, label %91, label %92

91:                                               ; preds = %72
  store i32 10, ptr %9, align 4
  store i32 1, ptr %19, align 4
  br label %199

92:                                               ; preds = %72
  %93 = load i64, ptr %18, align 8, !tbaa !4
  %94 = load i64, ptr %16, align 8, !tbaa !4
  %95 = sub i64 %94, %93
  store i64 %95, ptr %16, align 8, !tbaa !4
  %96 = load i64, ptr %13, align 8, !tbaa !4
  %97 = load ptr, ptr %10, align 8, !tbaa !8
  %98 = getelementptr inbounds nuw %struct.lzma_block, ptr %97, i32 0, i32 4
  store i64 %96, ptr %98, align 8, !tbaa !23
  %99 = load i64, ptr %13, align 8, !tbaa !4
  %100 = call i64 @lzma2_bound(i64 noundef %99)
  %101 = load ptr, ptr %10, align 8, !tbaa !8
  %102 = getelementptr inbounds nuw %struct.lzma_block, ptr %101, i32 0, i32 3
  store i64 %100, ptr %102, align 8, !tbaa !24
  %103 = load ptr, ptr %10, align 8, !tbaa !8
  %104 = getelementptr inbounds nuw %struct.lzma_block, ptr %103, i32 0, i32 3
  %105 = load i64, ptr %104, align 8, !tbaa !24
  %106 = icmp eq i64 %105, 0
  br i1 %106, label %107, label %108

107:                                              ; preds = %92
  store i32 9, ptr %9, align 4
  store i32 1, ptr %19, align 4
  br label %199

108:                                              ; preds = %92
  call void @llvm.lifetime.start.p0(i64 4, ptr %20) #7
  store i32 10, ptr %20, align 4, !tbaa !25
  %109 = load i8, ptr %17, align 1, !tbaa !14, !range !20, !noundef !21
  %110 = trunc i8 %109 to i1
  br i1 %110, label %111, label %120

111:                                              ; preds = %108
  %112 = load ptr, ptr %10, align 8, !tbaa !8
  %113 = load ptr, ptr %11, align 8, !tbaa !8
  %114 = load ptr, ptr %12, align 8, !tbaa !10
  %115 = load i64, ptr %13, align 8, !tbaa !4
  %116 = load ptr, ptr %14, align 8, !tbaa !10
  %117 = load ptr, ptr %15, align 8, !tbaa !12
  %118 = load i64, ptr %16, align 8, !tbaa !4
  %119 = call i32 @block_encode_normal(ptr noundef %112, ptr noundef %113, ptr noundef %114, i64 noundef %115, ptr noundef %116, ptr noundef %117, i64 noundef %118)
  store i32 %119, ptr %20, align 4, !tbaa !25
  br label %120

120:                                              ; preds = %111, %108
  %121 = load i32, ptr %20, align 4, !tbaa !25
  %122 = icmp ne i32 %121, 0
  br i1 %122, label %123, label %147

123:                                              ; preds = %120
  %124 = load i32, ptr %20, align 4, !tbaa !25
  %125 = icmp ne i32 %124, 10
  br i1 %125, label %126, label %128

126:                                              ; preds = %123
  %127 = load i32, ptr %20, align 4, !tbaa !25
  store i32 %127, ptr %9, align 4
  store i32 1, ptr %19, align 4
  br label %198

128:                                              ; preds = %123
  br label %129

129:                                              ; preds = %128
  call void @llvm.lifetime.start.p0(i64 4, ptr %21) #7
  %130 = load ptr, ptr %10, align 8, !tbaa !8
  %131 = load ptr, ptr %12, align 8, !tbaa !10
  %132 = load i64, ptr %13, align 8, !tbaa !4
  %133 = load ptr, ptr %14, align 8, !tbaa !10
  %134 = load ptr, ptr %15, align 8, !tbaa !12
  %135 = load i64, ptr %16, align 8, !tbaa !4
  %136 = call i32 @block_encode_uncompressed(ptr noundef %130, ptr noundef %131, i64 noundef %132, ptr noundef %133, ptr noundef %134, i64 noundef %135)
  store i32 %136, ptr %21, align 4, !tbaa !25
  %137 = load i32, ptr %21, align 4, !tbaa !25
  %138 = icmp ne i32 %137, 0
  br i1 %138, label %139, label %141

139:                                              ; preds = %129
  %140 = load i32, ptr %21, align 4, !tbaa !25
  store i32 %140, ptr %9, align 4
  store i32 1, ptr %19, align 4
  br label %142

141:                                              ; preds = %129
  store i32 0, ptr %19, align 4
  br label %142

142:                                              ; preds = %141, %139
  call void @llvm.lifetime.end.p0(i64 4, ptr %21) #7
  %143 = load i32, ptr %19, align 4
  switch i32 %143, label %198 [
    i32 0, label %144
  ]

144:                                              ; preds = %142
  br label %145

145:                                              ; preds = %144
  br label %146

146:                                              ; preds = %145
  br label %147

147:                                              ; preds = %146, %120
  call void @llvm.lifetime.start.p0(i64 8, ptr %22) #7
  %148 = load ptr, ptr %10, align 8, !tbaa !8
  %149 = getelementptr inbounds nuw %struct.lzma_block, ptr %148, i32 0, i32 3
  %150 = load i64, ptr %149, align 8, !tbaa !24
  store i64 %150, ptr %22, align 8, !tbaa !4
  br label %151

151:                                              ; preds = %162, %147
  %152 = load i64, ptr %22, align 8, !tbaa !4
  %153 = and i64 %152, 3
  %154 = icmp ne i64 %153, 0
  br i1 %154, label %156, label %155

155:                                              ; preds = %151
  store i32 4, ptr %19, align 4
  call void @llvm.lifetime.end.p0(i64 8, ptr %22) #7
  br label %165

156:                                              ; preds = %151
  %157 = load ptr, ptr %14, align 8, !tbaa !10
  %158 = load ptr, ptr %15, align 8, !tbaa !12
  %159 = load i64, ptr %158, align 8, !tbaa !4
  %160 = add i64 %159, 1
  store i64 %160, ptr %158, align 8, !tbaa !4
  %161 = getelementptr inbounds nuw i8, ptr %157, i64 %159
  store i8 0, ptr %161, align 1, !tbaa !26
  br label %162

162:                                              ; preds = %156
  %163 = load i64, ptr %22, align 8, !tbaa !4
  %164 = add i64 %163, 1
  store i64 %164, ptr %22, align 8, !tbaa !4
  br label %151, !llvm.loop !27

165:                                              ; preds = %155
  %166 = load i64, ptr %18, align 8, !tbaa !4
  %167 = icmp ugt i64 %166, 0
  br i1 %167, label %168, label %197

168:                                              ; preds = %165
  call void @llvm.lifetime.start.p0(i64 104, ptr %23) #7
  %169 = load ptr, ptr %10, align 8, !tbaa !8
  %170 = getelementptr inbounds nuw %struct.lzma_block, ptr %169, i32 0, i32 2
  %171 = load i32, ptr %170, align 8, !tbaa !19
  call void @lzma_check_init(ptr noundef %23, i32 noundef %171)
  %172 = load ptr, ptr %10, align 8, !tbaa !8
  %173 = getelementptr inbounds nuw %struct.lzma_block, ptr %172, i32 0, i32 2
  %174 = load i32, ptr %173, align 8, !tbaa !19
  %175 = load ptr, ptr %12, align 8, !tbaa !10
  %176 = load i64, ptr %13, align 8, !tbaa !4
  call void @lzma_check_update(ptr noundef %23, i32 noundef %174, ptr noundef %175, i64 noundef %176)
  %177 = load ptr, ptr %10, align 8, !tbaa !8
  %178 = getelementptr inbounds nuw %struct.lzma_block, ptr %177, i32 0, i32 2
  %179 = load i32, ptr %178, align 8, !tbaa !19
  call void @lzma_check_finish(ptr noundef %23, i32 noundef %179)
  %180 = load ptr, ptr %10, align 8, !tbaa !8
  %181 = getelementptr inbounds nuw %struct.lzma_block, ptr %180, i32 0, i32 6
  %182 = getelementptr inbounds [64 x i8], ptr %181, i64 0, i64 0
  %183 = getelementptr inbounds nuw %struct.lzma_check_state, ptr %23, i32 0, i32 0
  %184 = getelementptr inbounds [64 x i8], ptr %183, i64 0, i64 0
  %185 = load i64, ptr %18, align 8, !tbaa !4
  call void @llvm.memcpy.p0.p0.i64(ptr align 8 %182, ptr align 8 %184, i64 %185, i1 false)
  %186 = load ptr, ptr %14, align 8, !tbaa !10
  %187 = load ptr, ptr %15, align 8, !tbaa !12
  %188 = load i64, ptr %187, align 8, !tbaa !4
  %189 = getelementptr inbounds nuw i8, ptr %186, i64 %188
  %190 = getelementptr inbounds nuw %struct.lzma_check_state, ptr %23, i32 0, i32 0
  %191 = getelementptr inbounds [64 x i8], ptr %190, i64 0, i64 0
  %192 = load i64, ptr %18, align 8, !tbaa !4
  call void @llvm.memcpy.p0.p0.i64(ptr align 1 %189, ptr align 8 %191, i64 %192, i1 false)
  %193 = load i64, ptr %18, align 8, !tbaa !4
  %194 = load ptr, ptr %15, align 8, !tbaa !12
  %195 = load i64, ptr %194, align 8, !tbaa !4
  %196 = add i64 %195, %193
  store i64 %196, ptr %194, align 8, !tbaa !4
  call void @llvm.lifetime.end.p0(i64 104, ptr %23) #7
  br label %197

197:                                              ; preds = %168, %165
  store i32 0, ptr %9, align 4
  store i32 1, ptr %19, align 4
  br label %198

198:                                              ; preds = %197, %142, %126
  call void @llvm.lifetime.end.p0(i64 4, ptr %20) #7
  br label %199

199:                                              ; preds = %198, %107, %91
  call void @llvm.lifetime.end.p0(i64 8, ptr %18) #7
  br label %200

200:                                              ; preds = %199, %71, %64, %50, %44
  %201 = load i32, ptr %9, align 4
  ret i32 %201
}