; Function Attrs: nounwind uwtable
define internal fastcc i32 @block_buffer_encode(ptr noundef %0, ptr noundef %1, ptr noundef %2, i64 noundef %3, ptr noundef %4, ptr noundef %5, i64 noundef %6, i1 noundef zeroext %7) unnamed_addr #2 {
  %9 = alloca %struct.lzma_check_state, align 8
  %10 = icmp eq ptr %0, null
  br i1 %10, label %75, label %11

11:                                               ; preds = %8
  %12 = icmp eq ptr %2, null
  %13 = icmp ne i64 %3, 0
  %or.cond = and i1 %12, %13
  %14 = icmp eq ptr %4, null
  %or.cond3 = or i1 %or.cond, %14
  %15 = icmp eq ptr %5, null
  %or.cond5 = or i1 %or.cond3, %15
  br i1 %or.cond5, label %75, label %16

16:                                               ; preds = %11
  %17 = load i64, ptr %5, align 8, !tbaa !4
  %18 = icmp ugt i64 %17, %6
  br i1 %18, label %75, label %19

19:                                               ; preds = %16
  %20 = load i32, ptr %0, align 8, !tbaa !8
  %21 = icmp ugt i32 %20, 1
  br i1 %21, label %75, label %22

22:                                               ; preds = %19
  %23 = getelementptr inbounds nuw i8, ptr %0, i64 8
  %24 = load i32, ptr %23, align 8, !tbaa !12
  %25 = icmp ugt i32 %24, 15
  br i1 %25, label %75, label %26

26:                                               ; preds = %22
  br i1 %7, label %27, label %31

27:                                               ; preds = %26
  %28 = getelementptr inbounds nuw i8, ptr %0, i64 32
  %29 = load ptr, ptr %28, align 8, !tbaa !13
  %30 = icmp eq ptr %29, null
  br i1 %30, label %75, label %31

31:                                               ; preds = %27, %26
  %32 = tail call zeroext i8 @lzma_check_is_supported(i32 noundef %24) #9
  %.not = icmp eq i8 %32, 0
  br i1 %.not, label %75, label %33

33:                                               ; preds = %31
  %34 = sub i64 %6, %17
  %35 = and i64 %34, 3
  %36 = sub i64 %6, %35
  %37 = tail call i32 @lzma_check_size(i32 noundef %24) #9
  %38 = zext i32 %37 to i64
  %39 = sub i64 %36, %17
  %.not77 = icmp ugt i64 %39, %38
  br i1 %.not77, label %40, label %75

40:                                               ; preds = %33
  %41 = sub i64 %36, %38
  %42 = getelementptr inbounds nuw i8, ptr %0, i64 24
  store i64 %3, ptr %42, align 8, !tbaa !14
  %43 = icmp ugt i64 %3, 9223372036854774716
  br i1 %43, label %lzma2_bound.exit.thread, label %44

44:                                               ; preds = %40
  %45 = add nuw i64 %3, 65535
  %46 = lshr i64 %45, 16
  %47 = mul nuw nsw i64 %46, 3
  %48 = sub nuw nsw i64 9223372036854774715, %47
  %49 = icmp samesign ult i64 %48, %3
  br i1 %49, label %lzma2_bound.exit.thread, label %51

lzma2_bound.exit.thread:                          ; preds = %40, %44
  %50 = getelementptr inbounds nuw i8, ptr %0, i64 16
  store i64 0, ptr %50, align 8, !tbaa !15
  br label %75

51:                                               ; preds = %44
  %52 = add nuw nsw i64 %3, 1
  %53 = add nuw i64 %52, %47
  %54 = getelementptr inbounds nuw i8, ptr %0, i64 16
  store i64 %53, ptr %54, align 8, !tbaa !15
  br i1 %7, label %55, label %.thread

55:                                               ; preds = %51
  %56 = tail call fastcc i32 @block_encode_normal(ptr noundef %0, ptr noundef %1, ptr noundef %2, i64 noundef %3, ptr noundef %4, ptr noundef %5, i64 noundef %41)
  switch i32 %56, label %75 [
    i32 0, label %58
    i32 10, label %.thread
  ]

.thread:                                          ; preds = %51, %55
  %57 = tail call fastcc i32 @block_encode_uncompressed(ptr noundef %0, ptr noundef %2, i64 noundef %3, ptr noundef %4, ptr noundef %5, i64 noundef %41)
  %.not80 = icmp eq i32 %57, 0
  br i1 %.not80, label %58, label %75

58:                                               ; preds = %55, %.thread
  %59 = load i64, ptr %54, align 8, !tbaa !15
  %60 = and i64 %59, 3
  %.not8185 = icmp eq i64 %60, 0
  br i1 %.not8185, label %._crit_edge, label %.lr.ph

._crit_edge:                                      ; preds = %.lr.ph, %58
  %.not82 = icmp eq i32 %37, 0
  br i1 %.not82, label %75, label %66

.lr.ph:                                           ; preds = %58, %.lr.ph
  %.086 = phi i64 [ %64, %.lr.ph ], [ %59, %58 ]
  %61 = load i64, ptr %5, align 8, !tbaa !4
  %62 = add i64 %61, 1
  store i64 %62, ptr %5, align 8, !tbaa !4
  %63 = getelementptr inbounds nuw i8, ptr %4, i64 %61
  store i8 0, ptr %63, align 1, !tbaa !16
  %64 = add i64 %.086, 1
  %65 = and i64 %64, 3
  %.not81 = icmp eq i64 %65, 0
  br i1 %.not81, label %._crit_edge, label %.lr.ph, !llvm.loop !17

66:                                               ; preds = %._crit_edge
  call void @llvm.lifetime.start.p0(i64 104, ptr nonnull %9) #10
  %67 = load i32, ptr %23, align 8, !tbaa !12
  call void @lzma_check_init(ptr noundef nonnull %9, i32 noundef %67) #10
  %68 = load i32, ptr %23, align 8, !tbaa !12
  call void @lzma_check_update(ptr noundef nonnull %9, i32 noundef %68, ptr noundef %2, i64 noundef %3) #10
  %69 = load i32, ptr %23, align 8, !tbaa !12
  call void @lzma_check_finish(ptr noundef nonnull %9, i32 noundef %69) #10
  %70 = getelementptr inbounds nuw i8, ptr %0, i64 40
  call void @llvm.memcpy.p0.p0.i64(ptr nonnull align 8 %70, ptr nonnull align 8 %9, i64 %38, i1 false)
  %71 = load i64, ptr %5, align 8, !tbaa !4
  %72 = getelementptr inbounds nuw i8, ptr %4, i64 %71
  call void @llvm.memcpy.p0.p0.i64(ptr align 1 %72, ptr nonnull align 8 %9, i64 %38, i1 false)
  %73 = load i64, ptr %5, align 8, !tbaa !4
  %74 = add i64 %73, %38
  store i64 %74, ptr %5, align 8, !tbaa !4
  call void @llvm.lifetime.end.p0(i64 104, ptr nonnull %9) #10
  br label %75

75:                                               ; preds = %lzma2_bound.exit.thread, %33, %._crit_edge, %66, %55, %.thread, %31, %22, %27, %19, %8, %16, %11
  %.069 = phi i32 [ 11, %11 ], [ 11, %16 ], [ 11, %8 ], [ 8, %19 ], [ 11, %27 ], [ 11, %22 ], [ 3, %31 ], [ 10, %33 ], [ %57, %.thread ], [ %56, %55 ], [ 0, %66 ], [ 0, %._crit_edge ], [ 9, %lzma2_bound.exit.thread ]
  ret i32 %.069
}